target datalayout = "e-m:e-p270:32:32-p271:32:32-p272:64:64-i64:64-i128:128-f80:128-n8:16:32:64-S128"
target triple = "x86_64-unknown-linux-gnu"

%"class.hermes::vm::HermesValue32" = type { i32 }
%"class.hermes::vm::GCHermesValueBase.120" = type { %"class.hermes::vm::HermesValue32" }

; Function Attrs: mustprogress nounwind uwtable
define hidden void @_ZN6hermes2vm7HadesGC29snapshotWriteBarrierRangeSlowEPKNS0_17GCHermesValueBaseINS0_13HermesValue32EEEj(ptr noundef nonnull align 8 dereferenceable(8152) %this, ptr noundef %start, i32 noundef %numHVs) #0 align 2 {
entry:
  %this.addr = alloca ptr, align 8
  %start.addr = alloca ptr, align 8
  %numHVs.addr = alloca i32, align 4
  %i = alloca i32, align 4
  %agg.tmp = alloca %"class.hermes::vm::HermesValue32", align 4
  store ptr %this, ptr %this.addr, align 8
  store ptr %start, ptr %start.addr, align 8
  store i32 %numHVs, ptr %numHVs.addr, align 4
  %this1 = load ptr, ptr %this.addr, align 8
  store i32 0, ptr %i, align 4
  br label %for.cond

for.cond:                                         ; preds = %for.inc, %entry
  %0 = load i32, ptr %i, align 4
  %1 = load i32, ptr %numHVs.addr, align 4
  %cmp = icmp ult i32 %0, %1
  br i1 %cmp, label %for.body, label %for.end

for.body:                                         ; preds = %for.cond
  %2 = load ptr, ptr %start.addr, align 8
  %3 = load i32, ptr %i, align 4
  %idxprom = zext i32 %3 to i64
  %arrayidx = getelementptr inbounds %"class.hermes::vm::GCHermesValueBase.120", ptr %2, i64 %idxprom
  call void @llvm.memcpy.p0.p0.i64(ptr align 4 %agg.tmp, ptr align 4 %arrayidx, i64 4, i1 false)
  %coerce.dive = getelementptr inbounds %"class.hermes::vm::HermesValue32", ptr %agg.tmp, i32 0, i32 0
  %4 = load i32, ptr %coerce.dive, align 4
  call void @_ZN6hermes2vm7HadesGC28snapshotWriteBarrierInternalENS0_13HermesValue32E(ptr noundef nonnull align 8 dereferenceable(8152) %this1, i32 %4)
  br label %for.inc

for.inc:                                          ; preds = %for.body
  %5 = load i32, ptr %i, align 4
  %inc = add i32 %5, 1
  store i32 %inc, ptr %i, align 4
  br label %for.cond, !llvm.loop !12

for.end:                                          ; preds = %for.cond
  ret void
}